; Function Attrs: mustprogress nounwind uwtable
define hidden void @_ZN27JvmtiVTMSTransitionDisabler16VTMS_vthread_endEP8_jobject(ptr noundef %0) local_unnamed_addr #0 align 2 {
  %2 = tail call align 8 ptr @llvm.threadlocal.address.p0(ptr align 8 @_ZN6Thread12_thr_currentE)
  %3 = load ptr, ptr %2, align 8
  %4 = load i8, ptr @_ZN11JvmtiExport28_should_post_vthread_unmountE, align 1
  %5 = trunc i8 %4 to i1
  br i1 %5, label %6, label %7

6:                                                ; preds = %1
  tail call void @_ZN11JvmtiExport20post_vthread_unmountEP8_jobject(ptr noundef %0) #13
  br label %7

7:                                                ; preds = %6, %1
  %8 = load i8, ptr @_ZN11JvmtiExport24_should_post_vthread_endE, align 1
  %9 = trunc i8 %8 to i1
  br i1 %9, label %10, label %11

10:                                               ; preds = %7
  tail call void @_ZN11JvmtiExport16post_vthread_endEP8_jobject(ptr noundef %0) #13
  br label %11

11:                                               ; preds = %10, %7
  tail call void @_ZN27JvmtiVTMSTransitionDisabler21start_VTMS_transitionEP8_jobjectb(ptr noundef %0, i1 zeroext poison)
  %12 = getelementptr inbounds i8, ptr %3, i64 1536
  %13 = load ptr, ptr %12, align 8
  %.not = icmp eq ptr %13, null
  br i1 %.not, label %15, label %14

14:                                               ; preds = %11
  tail call void @_ZN11JvmtiExport14cleanup_threadEP10JavaThread(ptr noundef nonnull %3) #13
  br label %15

15:                                               ; preds = %14, %11
  %16 = tail call noundef ptr @_ZNK10JavaThread9threadObjEv(ptr noundef nonnull align 8 dereferenceable(1800) %3) #13
  %17 = tail call noundef ptr @_ZN10JavaThread31rebind_to_jvmti_thread_state_ofEP7oopDesc(ptr noundef nonnull align 8 dereferenceable(1800) %3, ptr noundef %16) #13
  ret void
}